target datalayout = "e-m:e-p270:32:32-p271:32:32-p272:64:64-i64:64-i128:128-f80:128-n8:16:32:64-S128"
target triple = "x86_64-pc-linux-gnu"

%struct.uv_handle_s = type { ptr, ptr, i32, ptr, [2 x ptr], %union.anon.0, ptr, i32 }
%union.anon.0 = type { [4 x ptr] }
%struct.uv__io_s = type { ptr, [2 x ptr], [2 x ptr], i32, i32, i32 }
%struct.uv_stream_s = type { ptr, ptr, i32, ptr, [2 x ptr], %union.anon, ptr, i32, i64, ptr, ptr, ptr, ptr, %struct.uv__io_s, [2 x ptr], [2 x ptr], ptr, i32, i32, ptr }
%union.anon = type { [4 x ptr] }
%struct.msghdr = type { ptr, i32, ptr, i64, ptr, i64, i32 }
%union.anon.7 = type { %struct.cmsghdr, [48 x i8] }
%struct.cmsghdr = type { i64, i32, i32, [0 x i8] }
%struct.uv_udp_s = type { ptr, ptr, i32, ptr, [2 x ptr], %union.anon.6, ptr, i32, i64, i64, ptr, ptr, %struct.uv__io_s, [2 x ptr], [2 x ptr] }
%union.anon.6 = type { [4 x ptr] }
%struct.iovec = type { ptr, i64 }

; Function Attrs: nounwind uwtable
define internal i64 @uv__writev(i32 noundef %0, ptr noundef %1, i64 noundef %2) #0 {
  %4 = alloca i64, align 8
  %5 = alloca i32, align 4
  %6 = alloca ptr, align 8
  %7 = alloca i64, align 8
  store i32 %0, ptr %5, align 4
  store ptr %1, ptr %6, align 8
  store i64 %2, ptr %7, align 8
  %8 = load i64, ptr %7, align 8
  %9 = icmp eq i64 %8, 1
  br i1 %9, label %10, label %19

10:                                               ; preds = %3
  %11 = load i32, ptr %5, align 4
  %12 = load ptr, ptr %6, align 8
  %13 = getelementptr inbounds %struct.iovec, ptr %12, i32 0, i32 0
  %14 = load ptr, ptr %13, align 8
  %15 = load ptr, ptr %6, align 8
  %16 = getelementptr inbounds %struct.iovec, ptr %15, i32 0, i32 1
  %17 = load i64, ptr %16, align 8
  %18 = call i64 @write(i32 noundef %11, ptr noundef %14, i64 noundef %17)
  store i64 %18, ptr %4, align 8
  br label %25

19:                                               ; preds = %3
  %20 = load i32, ptr %5, align 4
  %21 = load ptr, ptr %6, align 8
  %22 = load i64, ptr %7, align 8
  %23 = trunc i64 %22 to i32
  %24 = call i64 @writev(i32 noundef %20, ptr noundef %21, i32 noundef %23)
  store i64 %24, ptr %4, align 8
  br label %25

25:                                               ; preds = %19, %10
  %26 = load i64, ptr %4, align 8
  ret i64 %26
}

; Function Attrs: nounwind uwtable
define internal i32 @uv__handle_fd(ptr noundef %0) #0 {
  %2 = alloca i32, align 4
  %3 = alloca ptr, align 8
  store ptr %0, ptr %3, align 8
  %4 = load ptr, ptr %3, align 8
  %5 = getelementptr inbounds %struct.uv_handle_s, ptr %4, i32 0, i32 2
  %6 = load i32, ptr %5, align 8
  switch i32 %6, label %17 [
    i32 7, label %7
    i32 12, label %7
    i32 15, label %12
  ]

7:                                                ; preds = %1, %1
  %8 = load ptr, ptr %3, align 8
  %9 = getelementptr inbounds %struct.uv_stream_s, ptr %8, i32 0, i32 13
  %10 = getelementptr inbounds %struct.uv__io_s, ptr %9, i32 0, i32 5
  %11 = load i32, ptr %10, align 8
  store i32 %11, ptr %2, align 4
  br label %18

12:                                               ; preds = %1
  %13 = load ptr, ptr %3, align 8
  %14 = getelementptr inbounds %struct.uv_udp_s, ptr %13, i32 0, i32 12
  %15 = getelementptr inbounds %struct.uv__io_s, ptr %14, i32 0, i32 5
  %16 = load i32, ptr %15, align 8
  store i32 %16, ptr %2, align 4
  br label %18

17:                                               ; preds = %1
  store i32 -1, ptr %2, align 4
  br label %18

18:                                               ; preds = %17, %12, %7
  %19 = load i32, ptr %2, align 4
  ret i32 %19
}

; Function Attrs: nounwind uwtable
define internal i32 @uv__try_write(ptr noundef %0, ptr noundef %1, i32 noundef %2, ptr noundef %3) #0 {
  %5 = alloca i32, align 4
  %6 = alloca ptr, align 8
  %7 = alloca ptr, align 8
  %8 = alloca i32, align 4
  %9 = alloca ptr, align 8
  %10 = alloca ptr, align 8
  %11 = alloca i32, align 4
  %12 = alloca i32, align 4
  %13 = alloca i64, align 8
  %14 = alloca i32, align 4
  %15 = alloca %struct.msghdr, align 8
  %16 = alloca ptr, align 8
  %17 = alloca %union.anon.7, align 8
  %18 = alloca ptr, align 8
  %19 = alloca ptr, align 8
  store ptr %0, ptr %6, align 8
  store ptr %1, ptr %7, align 8
  store i32 %2, ptr %8, align 4
  store ptr %3, ptr %9, align 8
  %20 = load ptr, ptr %7, align 8
  store ptr %20, ptr %10, align 8
  %21 = load i32, ptr %8, align 4
  store i32 %21, ptr %12, align 4
  %22 = call i32 @uv__getiovmax()
  store i32 %22, ptr %11, align 4
  %23 = load i32, ptr %12, align 4
  %24 = load i32, ptr %11, align 4
  %25 = icmp sgt i32 %23, %24
  br i1 %25, label %26, label %28

26:                                               ; preds = %4
  %27 = load i32, ptr %11, align 4
  store i32 %27, ptr %12, align 4
  br label %28

28:                                               ; preds = %26, %4
  %29 = load ptr, ptr %9, align 8
  %30 = icmp ne ptr %29, null
  br i1 %30, label %31, label %88

31:                                               ; preds = %28
  %32 = load ptr, ptr %9, align 8
  %33 = getelementptr inbounds %struct.uv_stream_s, ptr %32, i32 0, i32 7
  %34 = load i32, ptr %33, align 8
  %35 = and i32 %34, 3
  %36 = icmp ne i32 %35, 0
  br i1 %36, label %37, label %38

37:                                               ; preds = %31
  store i32 -9, ptr %5, align 4
  br label %131

38:                                               ; preds = %31
  %39 = load ptr, ptr %9, align 8
  %40 = call i32 @uv__handle_fd(ptr noundef %39)
  store i32 %40, ptr %14, align 4
  call void @llvm.memset.p0.i64(ptr align 8 %17, i8 0, i64 64, i1 false)
  %41 = getelementptr inbounds %struct.msghdr, ptr %15, i32 0, i32 0
  store ptr null, ptr %41, align 8
  %42 = getelementptr inbounds %struct.msghdr, ptr %15, i32 0, i32 1
  store i32 0, ptr %42, align 8
  %43 = load ptr, ptr %10, align 8
  %44 = getelementptr inbounds %struct.msghdr, ptr %15, i32 0, i32 2
  store ptr %43, ptr %44, align 8
  %45 = load i32, ptr %12, align 4
  %46 = sext i32 %45 to i64
  %47 = getelementptr inbounds %struct.msghdr, ptr %15, i32 0, i32 3
  store i64 %46, ptr %47, align 8
  %48 = getelementptr inbounds %struct.msghdr, ptr %15, i32 0, i32 6
  store i32 0, ptr %48, align 8
  %49 = getelementptr inbounds %struct.msghdr, ptr %15, i32 0, i32 4
  store ptr %17, ptr %49, align 8
  %50 = getelementptr inbounds %struct.msghdr, ptr %15, i32 0, i32 5
  store i64 24, ptr %50, align 8
  %51 = getelementptr inbounds %struct.msghdr, ptr %15, i32 0, i32 5
  %52 = load i64, ptr %51, align 8
  %53 = icmp uge i64 %52, 16
  br i1 %53, label %54, label %57

54:                                               ; preds = %38
  %55 = getelementptr inbounds %struct.msghdr, ptr %15, i32 0, i32 4
  %56 = load ptr, ptr %55, align 8
  br label %58

57:                                               ; preds = %38
  br label %58

58:                                               ; preds = %57, %54
  %59 = phi ptr [ %56, %54 ], [ null, %57 ]
  store ptr %59, ptr %16, align 8
  %60 = load ptr, ptr %16, align 8
  %61 = getelementptr inbounds %struct.cmsghdr, ptr %60, i32 0, i32 1
  store i32 1, ptr %61, align 8
  %62 = load ptr, ptr %16, align 8
  %63 = getelementptr inbounds %struct.cmsghdr, ptr %62, i32 0, i32 2
  store i32 1, ptr %63, align 4
  %64 = load ptr, ptr %16, align 8
  %65 = getelementptr inbounds %struct.cmsghdr, ptr %64, i32 0, i32 0
  store i64 20, ptr %65, align 8
  %66 = load ptr, ptr %16, align 8
  %67 = getelementptr inbounds %struct.cmsghdr, ptr %66, i32 0, i32 3
  %68 = getelementptr inbounds [0 x i8], ptr %67, i64 0, i64 0
  store ptr %68, ptr %18, align 8
  %69 = load ptr, ptr %18, align 8
  store ptr %69, ptr %19, align 8
  %70 = load i32, ptr %14, align 4
  %71 = load ptr, ptr %19, align 8
  store i32 %70, ptr %71, align 4
  br label %72

72:                                               ; preds = %85, %58
  %73 = load ptr, ptr %6, align 8
  %74 = getelementptr inbounds %struct.uv_stream_s, ptr %73, i32 0, i32 13
  %75 = getelementptr inbounds %struct.uv__io_s, ptr %74, i32 0, i32 5
  %76 = load i32, ptr %75, align 8
  %77 = call i64 @sendmsg(i32 noundef %76, ptr noundef %15, i32 noundef 0)
  store i64 %77, ptr %13, align 8
  br label %78

78:                                               ; preds = %72
  %79 = load i64, ptr %13, align 8
  %80 = icmp eq i64 %79, -1
  br i1 %80, label %81, label %85

81:                                               ; preds = %78
  %82 = call ptr @__errno_location() #6
  %83 = load i32, ptr %82, align 4
  %84 = icmp eq i32 %83, 4
  br label %85

85:                                               ; preds = %81, %78
  %86 = phi i1 [ false, %78 ], [ %84, %81 ]
  br i1 %86, label %72, label %87, !llvm.loop !10

87:                                               ; preds = %85
  br label %108

88:                                               ; preds = %28
  br label %89

89:                                               ; preds = %105, %88
  %90 = load ptr, ptr %6, align 8
  %91 = getelementptr inbounds %struct.uv_stream_s, ptr %90, i32 0, i32 13
  %92 = getelementptr inbounds %struct.uv__io_s, ptr %91, i32 0, i32 5
  %93 = load i32, ptr %92, align 8
  %94 = load ptr, ptr %10, align 8
  %95 = load i32, ptr %12, align 4
  %96 = sext i32 %95 to i64
  %97 = call i64 @uv__writev(i32 noundef %93, ptr noundef %94, i64 noundef %96)
  store i64 %97, ptr %13, align 8
  br label %98

98:                                               ; preds = %89
  %99 = load i64, ptr %13, align 8
  %100 = icmp eq i64 %99, -1
  br i1 %100, label %101, label %105

101:                                              ; preds = %98
  %102 = call ptr @__errno_location() #6
  %103 = load i32, ptr %102, align 4
  %104 = icmp eq i32 %103, 4
  br label %105

105:                                              ; preds = %101, %98
  %106 = phi i1 [ false, %98 ], [ %104, %101 ]
  br i1 %106, label %89, label %107, !llvm.loop !11

107:                                              ; preds = %105
  br label %108

108:                                              ; preds = %107, %87
  %109 = load i64, ptr %13, align 8
  %110 = icmp sge i64 %109, 0
  br i1 %110, label %111, label %114

111:                                              ; preds = %108
  %112 = load i64, ptr %13, align 8
  %113 = trunc i64 %112 to i32
  store i32 %113, ptr %5, align 4
  br label %131

114:                                              ; preds = %108
  %115 = call ptr @__errno_location() #6
  %116 = load i32, ptr %115, align 4
  %117 = icmp eq i32 %116, 11
  br i1 %117, label %126, label %118

118:                                              ; preds = %114
  %119 = call ptr @__errno_location() #6
  %120 = load i32, ptr %119, align 4
  %121 = icmp eq i32 %120, 11
  br i1 %121, label %126, label %122

122:                                              ; preds = %118
  %123 = call ptr @__errno_location() #6
  %124 = load i32, ptr %123, align 4
  %125 = icmp eq i32 %124, 105
  br i1 %125, label %126, label %127

126:                                              ; preds = %122, %118, %114
  store i32 -11, ptr %5, align 4
  br label %131

127:                                              ; preds = %122
  %128 = call ptr @__errno_location() #6
  %129 = load i32, ptr %128, align 4
  %130 = sub nsw i32 0, %129
  store i32 %130, ptr %5, align 4
  br label %131

131:                                              ; preds = %127, %126, %111, %37
  %132 = load i32, ptr %5, align 4
  ret i32 %132
}